; Function Attrs: mustprogress uwtable
define void @_ZNK6casadi3Dot10ad_forwardERKSt6vectorIS1_INS_2MXESaIS2_EESaIS4_EERS6_(ptr noundef nonnull readonly align 8 captures(none) dereferenceable(64) %0, ptr noundef nonnull readonly align 8 captures(none) dereferenceable(24) %1, ptr noundef nonnull readonly align 8 captures(none) dereferenceable(24) %2) unnamed_addr #3 align 2 personality ptr @__gxx_personality_v0 {
  %4 = alloca %"class.casadi::MX", align 8
  %5 = alloca %"class.casadi::MX", align 8
  %6 = alloca %"class.casadi::MX", align 8
  %7 = getelementptr inbounds nuw i8, ptr %2, i64 8
  %8 = load ptr, ptr %7, align 8, !tbaa !43
  %9 = load ptr, ptr %2, align 8, !tbaa !46
  %.not = icmp eq ptr %8, %9
  br i1 %.not, label %._crit_edge, label %.lr.ph

.lr.ph:                                           ; preds = %3
  %10 = getelementptr inbounds nuw i8, ptr %0, i64 32
  %11 = getelementptr inbounds nuw i8, ptr %0, i64 40
  br label %12

._crit_edge:                                      ; preds = %_ZN6casadi2MXaSERKS0_.exit, %3
  ret void

12:                                               ; preds = %.lr.ph, %_ZN6casadi2MXaSERKS0_.exit
  %.01322 = phi i64 [ 0, %.lr.ph ], [ %46, %_ZN6casadi2MXaSERKS0_.exit ]
  call void @llvm.lifetime.start.p0(i64 8, ptr nonnull %4) #20
  call void @llvm.lifetime.start.p0(i64 8, ptr nonnull %5) #20
  %13 = load ptr, ptr %11, align 8, !tbaa !47
  %14 = load ptr, ptr %10, align 8, !tbaa !37
  %.not.i.i.i.not = icmp eq ptr %13, %14
  br i1 %.not.i.i.i.not, label %15, label %_ZNK6casadi6MXNode3depEx.exit

15:                                               ; preds = %12
  call void (ptr, ...) @_ZSt24__throw_out_of_range_fmtPKcz(ptr noundef nonnull @.str.15, i64 noundef 0, i64 noundef 0) #21
  unreachable

_ZNK6casadi6MXNode3depEx.exit:                    ; preds = %12
  %16 = call noundef ptr @_ZNK6casadi2MXptEv(ptr noundef nonnull align 8 dereferenceable(8) %14)
  %17 = load ptr, ptr %1, align 8, !tbaa !46
  %18 = getelementptr inbounds nuw %"class.std::vector", ptr %17, i64 %.01322
  %19 = load ptr, ptr %18, align 8, !tbaa !37
  %20 = getelementptr inbounds nuw i8, ptr %19, i64 8
  %21 = load ptr, ptr %16, align 8, !tbaa !3
  %22 = getelementptr inbounds nuw i8, ptr %21, i64 832
  %23 = load ptr, ptr %22, align 8
  call void %23(ptr dead_on_unwind nonnull writable sret(%"class.casadi::MX") align 8 %5, ptr noundef nonnull align 8 dereferenceable(64) %16, ptr noundef nonnull align 8 dereferenceable(8) %20)
  call void @llvm.lifetime.start.p0(i64 8, ptr nonnull %6) #20
  %24 = load ptr, ptr %1, align 8, !tbaa !46
  %25 = getelementptr inbounds nuw %"class.std::vector", ptr %24, i64 %.01322
  %26 = load ptr, ptr %25, align 8, !tbaa !37
  %27 = invoke noundef ptr @_ZNK6casadi2MXptEv(ptr noundef nonnull align 8 dereferenceable(8) %26)
          to label %28 unwind label %.loopexit

28:                                               ; preds = %_ZNK6casadi6MXNode3depEx.exit
  %29 = load ptr, ptr %11, align 8, !tbaa !47
  %30 = load ptr, ptr %10, align 8, !tbaa !37
  %31 = ptrtoint ptr %29 to i64
  %32 = ptrtoint ptr %30 to i64
  %33 = sub i64 %31, %32
  %34 = ashr exact i64 %33, 3
  %.not.i.i.i16 = icmp ugt i64 %34, 1
  br i1 %.not.i.i.i16, label %36, label %35

35:                                               ; preds = %28
  invoke void (ptr, ...) @_ZSt24__throw_out_of_range_fmtPKcz(ptr noundef nonnull @.str.15, i64 noundef 1, i64 noundef %34) #21
          to label %.noexc unwind label %.loopexit.split-lp

.noexc:                                           ; preds = %35
  unreachable

36:                                               ; preds = %28
  %37 = getelementptr inbounds nuw i8, ptr %30, i64 8
  %38 = load ptr, ptr %27, align 8, !tbaa !3
  %39 = getelementptr inbounds nuw i8, ptr %38, i64 832
  %40 = load ptr, ptr %39, align 8
  invoke void %40(ptr dead_on_unwind nonnull writable sret(%"class.casadi::MX") align 8 %6, ptr noundef nonnull align 8 dereferenceable(64) %27, ptr noundef nonnull align 8 dereferenceable(8) %37)
          to label %41 unwind label %.loopexit

41:                                               ; preds = %36
  invoke void @_ZN6casadi2MX6binaryExRKS0_S2_(ptr dead_on_unwind nonnull writable sret(%"class.casadi::MX") align 8 %4, i64 noundef 1, ptr noundef nonnull align 8 dereferenceable(8) %5, ptr noundef nonnull align 8 dereferenceable(8) %6)
          to label %_ZN6casadiplERKNS_2MXES2_.exit unwind label %54

_ZN6casadiplERKNS_2MXES2_.exit:                   ; preds = %41
  %42 = load ptr, ptr %2, align 8, !tbaa !46
  %43 = getelementptr inbounds nuw %"class.std::vector", ptr %42, i64 %.01322
  %44 = load ptr, ptr %43, align 8, !tbaa !37
  %45 = invoke noundef nonnull align 8 dereferenceable(8) ptr @_ZN6casadi13GenericSharedINS_12SharedObjectENS_20SharedObjectInternalEEaSERKS3_(ptr noundef nonnull align 8 dereferenceable(8) %44, ptr noundef nonnull align 8 dereferenceable(8) %4)
          to label %_ZN6casadi2MXaSERKS0_.exit unwind label %56

_ZN6casadi2MXaSERKS0_.exit:                       ; preds = %_ZN6casadiplERKNS_2MXES2_.exit
  call void @_ZN6casadi2MXD1Ev(ptr noundef nonnull align 8 dereferenceable(8) %4) #20
  call void @_ZN6casadi2MXD1Ev(ptr noundef nonnull align 8 dereferenceable(8) %6) #20
  call void @llvm.lifetime.end.p0(i64 8, ptr nonnull %6) #20
  call void @_ZN6casadi2MXD1Ev(ptr noundef nonnull align 8 dereferenceable(8) %5) #20
  call void @llvm.lifetime.end.p0(i64 8, ptr nonnull %5) #20
  call void @llvm.lifetime.end.p0(i64 8, ptr nonnull %4) #20
  %46 = add nuw nsw i64 %.01322, 1
  %47 = load ptr, ptr %7, align 8, !tbaa !43
  %48 = load ptr, ptr %2, align 8, !tbaa !46
  %49 = ptrtoint ptr %47 to i64
  %50 = ptrtoint ptr %48 to i64
  %51 = sub i64 %49, %50
  %52 = sdiv exact i64 %51, 24
  %53 = icmp ult i64 %46, %52
  br i1 %53, label %12, label %._crit_edge, !llvm.loop !48

.loopexit:                                        ; preds = %_ZNK6casadi6MXNode3depEx.exit, %36
  %lpad.loopexit = landingpad { ptr, i32 }
          cleanup
  br label %59

.loopexit.split-lp:                               ; preds = %35
  %lpad.loopexit.split-lp = landingpad { ptr, i32 }
          cleanup
  br label %59

54:                                               ; preds = %41
  %55 = landingpad { ptr, i32 }
          cleanup
  br label %58

56:                                               ; preds = %_ZN6casadiplERKNS_2MXES2_.exit
  %57 = landingpad { ptr, i32 }
          cleanup
  call void @_ZN6casadi2MXD1Ev(ptr noundef nonnull align 8 dereferenceable(8) %4) #20
  br label %58

58:                                               ; preds = %56, %54
  %.pn = phi { ptr, i32 } [ %57, %56 ], [ %55, %54 ]
  call void @_ZN6casadi2MXD1Ev(ptr noundef nonnull align 8 dereferenceable(8) %6) #20
  br label %59

59:                                               ; preds = %.loopexit, %.loopexit.split-lp, %58
  %.pn.pn = phi { ptr, i32 } [ %.pn, %58 ], [ %lpad.loopexit, %.loopexit ], [ %lpad.loopexit.split-lp, %.loopexit.split-lp ]
  call void @llvm.lifetime.end.p0(i64 8, ptr nonnull %6) #20
  call void @_ZN6casadi2MXD1Ev(ptr noundef nonnull align 8 dereferenceable(8) %5) #20
  call void @llvm.lifetime.end.p0(i64 8, ptr nonnull %5) #20
  call void @llvm.lifetime.end.p0(i64 8, ptr nonnull %4) #20
  resume { ptr, i32 } %.pn.pn
}